; Function Attrs: nounwind uwtable
define internal void @lv_ime_pinyin_destructor(ptr readnone captures(none) %0, ptr noundef readonly captures(none) %1) #0 {
  %3 = getelementptr inbounds nuw i8, ptr %1, i64 64
  %4 = load ptr, ptr %3, align 8, !tbaa !36
  %5 = tail call zeroext i1 @lv_obj_is_valid(ptr noundef %4) #6
  br i1 %5, label %6, label %8

6:                                                ; preds = %2
  %7 = load ptr, ptr %3, align 8, !tbaa !36
  tail call void @lv_obj_delete(ptr noundef %7) #6
  br label %8

8:                                                ; preds = %6, %2
  %9 = getelementptr inbounds nuw i8, ptr %1, i64 72
  %10 = load ptr, ptr %9, align 8, !tbaa !30
  %11 = tail call zeroext i1 @lv_obj_is_valid(ptr noundef %10) #6
  br i1 %11, label %12, label %14

12:                                               ; preds = %8
  %13 = load ptr, ptr %9, align 8, !tbaa !30
  tail call void @lv_obj_delete(ptr noundef %13) #6
  br label %14

14:                                               ; preds = %12, %8
  ret void
}